target datalayout = "e-m:e-p270:32:32-p271:32:32-p272:64:64-i64:64-i128:128-f80:128-n8:16:32:64-S128"
target triple = "x86_64-pc-linux-gnu"

%struct.darktable_t = type { %struct.dt_codepath_t, i32, i32, ptr, ptr, ptr, ptr, ptr, ptr, ptr, ptr, ptr, ptr, ptr, ptr, ptr, ptr, ptr, ptr, ptr, ptr, ptr, ptr, ptr, ptr, ptr, ptr, ptr, ptr, ptr, [64 x %struct.dt_pthread_mutex_t], %struct.dt_pthread_mutex_t, %struct.dt_pthread_mutex_t, %struct.dt_pthread_mutex_t, %struct.dt_pthread_mutex_t, %struct.dt_pthread_mutex_t, ptr, ptr, ptr, ptr, ptr, ptr, ptr, ptr, ptr, ptr, ptr, ptr, ptr, %struct.dt_lua_state_t, ptr, double, ptr, i32, [47 x i32], i32, i32, ptr, ptr, %struct.dt_sys_resources_t, %struct.dt_backthumb_t, %struct.dt_gimp_t }
%struct.dt_codepath_t = type { i8, [3 x i8] }
%struct.dt_pthread_mutex_t = type { %union.pthread_mutex_t }
%union.pthread_mutex_t = type { %struct.__pthread_mutex_s }
%struct.__pthread_mutex_s = type { i32, i32, i32, i32, i32, i16, i16, %struct.__pthread_internal_list }
%struct.__pthread_internal_list = type { ptr, ptr }
%struct.dt_lua_state_t = type { i32 }
%struct.dt_sys_resources_t = type { i64, i64, ptr, ptr, i32 }
%struct.dt_backthumb_t = type { double, double, i32, i32, i32, i32 }
%struct.dt_gimp_t = type { i32, ptr, ptr, i32, i32 }
%struct.dt_lib_module_t = type { %struct.dt_action_t, ptr, ptr, ptr, ptr, ptr, ptr, ptr, ptr, ptr, ptr, ptr, ptr, ptr, ptr, ptr, ptr, ptr, ptr, ptr, ptr, ptr, ptr, ptr, ptr, ptr, ptr, ptr, ptr, ptr, ptr, [128 x i8], ptr, ptr, i32, ptr, ptr, ptr, i32 }
%struct.dt_action_t = type { i32, ptr, ptr, ptr, ptr, ptr }
%struct.dt_lib_tool_preferences_t = type { ptr, ptr, ptr, ptr, ptr, ptr, ptr, ptr, ptr, ptr, ptr, ptr, ptr, ptr, ptr, ptr, ptr, ptr, ptr, ptr, ptr, ptr, ptr, ptr, ptr, i32 }
%struct.dt_gui_gtk_t = type { ptr, %struct.dt_gui_widgets_t, %struct.dt_gui_scrollbars_t, i32, ptr, i32, [39 x %struct._GdkRGBA], i32, i32, i32, i32, i32, double, double, double, double, ptr, double, double, double, double, i32, i32, [4096 x i8], i32, i32, i32, %struct.dt_pthread_mutex_t }
%struct.dt_gui_widgets_t = type { ptr, ptr, ptr, ptr, i32, i32, i32 }
%struct.dt_gui_scrollbars_t = type { ptr, ptr, i32 }
%struct._GdkRGBA = type { double, double, double, double }

@darktable = external global %struct.darktable_t, align 8
@.str.40 = private unnamed_addr constant [53 x i8] c"plugins/lighttable/overlays/culling_block_timeout/%d\00", align 1

; Function Attrs: nounwind uwtable
define internal void @_overlays_timeout_changed(ptr noundef %0, ptr noundef %1) #0 {
  %3 = alloca ptr, align 8
  %4 = alloca ptr, align 8
  %5 = alloca ptr, align 8
  %6 = alloca i32, align 4
  %7 = alloca i32, align 4
  %8 = alloca ptr, align 8
  store ptr %0, ptr %3, align 8, !tbaa !68
  store ptr %1, ptr %4, align 8, !tbaa !6
  call void @llvm.lifetime.start.p0(i64 8, ptr %5) #9
  %9 = load ptr, ptr %4, align 8, !tbaa !6
  %10 = getelementptr inbounds nuw %struct.dt_lib_module_t, ptr %9, i32 0, i32 30
  %11 = load ptr, ptr %10, align 8, !tbaa !13
  store ptr %11, ptr %5, align 8, !tbaa !11
  call void @llvm.lifetime.start.p0(i64 4, ptr %6) #9
  %12 = load ptr, ptr %3, align 8, !tbaa !68
  %13 = call i64 @gtk_spin_button_get_type() #11
  %14 = call ptr @g_type_check_instance_cast(ptr noundef %12, i64 noundef %13)
  %15 = call i32 @gtk_spin_button_get_value_as_int(ptr noundef %14)
  store i32 %15, ptr %6, align 4, !tbaa !97
  %16 = load ptr, ptr %3, align 8, !tbaa !68
  %17 = load ptr, ptr %5, align 8, !tbaa !11
  %18 = getelementptr inbounds nuw %struct.dt_lib_tool_preferences_t, ptr %17, i32 0, i32 16
  %19 = load ptr, ptr %18, align 8, !tbaa !79
  %20 = icmp eq ptr %16, %19
  br i1 %20, label %21, label %27

21:                                               ; preds = %2
  %22 = load ptr, ptr getelementptr inbounds nuw (%struct.darktable_t, ptr @darktable, i32 0, i32 14), align 8, !tbaa !60
  %23 = getelementptr inbounds nuw %struct.dt_gui_gtk_t, ptr %22, i32 0, i32 0
  %24 = load ptr, ptr %23, align 8, !tbaa !99
  %25 = call ptr @dt_ui_thumbtable(ptr noundef %24)
  %26 = load i32, ptr %6, align 4, !tbaa !97
  call void @dt_thumbtable_set_overlays_block_timeout(ptr noundef %25, i32 noundef %26)
  br label %46

27:                                               ; preds = %2
  %28 = load ptr, ptr %3, align 8, !tbaa !68
  %29 = load ptr, ptr %5, align 8, !tbaa !11
  %30 = getelementptr inbounds nuw %struct.dt_lib_tool_preferences_t, ptr %29, i32 0, i32 23
  %31 = load ptr, ptr %30, align 8, !tbaa !87
  %32 = icmp eq ptr %28, %31
  br i1 %32, label %33, label %45

33:                                               ; preds = %27
  call void @llvm.lifetime.start.p0(i64 4, ptr %7) #9
  store i32 0, ptr %7, align 4, !tbaa !97
  %34 = load ptr, ptr getelementptr inbounds nuw (%struct.darktable_t, ptr @darktable, i32 0, i32 11), align 8, !tbaa !98
  %35 = call i32 @dt_view_lighttable_preview_state(ptr noundef %34)
  %36 = icmp ne i32 %35, 0
  br i1 %36, label %37, label %38

37:                                               ; preds = %33
  store i32 1, ptr %7, align 4, !tbaa !97
  br label %38

38:                                               ; preds = %37, %33
  call void @llvm.lifetime.start.p0(i64 8, ptr %8) #9
  %39 = load i32, ptr %7, align 4, !tbaa !97
  %40 = call noalias ptr (ptr, ...) @g_strdup_printf(ptr noundef @.str.40, i32 noundef %39)
  store ptr %40, ptr %8, align 8, !tbaa !106
  %41 = load ptr, ptr %8, align 8, !tbaa !106
  %42 = load i32, ptr %6, align 4, !tbaa !97
  call void @dt_conf_set_int(ptr noundef %41, i32 noundef %42)
  %43 = load ptr, ptr %8, align 8, !tbaa !106
  call void @g_free(ptr noundef %43)
  %44 = load ptr, ptr getelementptr inbounds nuw (%struct.darktable_t, ptr @darktable, i32 0, i32 11), align 8, !tbaa !98
  call void @dt_view_lighttable_culling_preview_reload_overlays(ptr noundef %44)
  call void @llvm.lifetime.end.p0(i64 8, ptr %8) #9
  call void @llvm.lifetime.end.p0(i64 4, ptr %7) #9
  br label %45

45:                                               ; preds = %38, %27
  br label %46

46:                                               ; preds = %45, %21
  call void @llvm.lifetime.end.p0(i64 4, ptr %6) #9
  call void @llvm.lifetime.end.p0(i64 8, ptr %5) #9
  ret void
}