; Function Attrs: nounwind uwtable
define internal void @_overlays_timeout_changed(ptr noundef %0, ptr noundef readonly captures(none) %1) #1 {
  %3 = getelementptr inbounds nuw i8, ptr %1, i64 280
  %4 = load ptr, ptr %3, align 8, !tbaa !6
  %5 = tail call i64 @gtk_spin_button_get_type() #12
  %6 = tail call ptr @g_type_check_instance_cast(ptr noundef %0, i64 noundef %5) #10
  %7 = tail call i32 @gtk_spin_button_get_value_as_int(ptr noundef %6) #10
  %8 = getelementptr inbounds nuw i8, ptr %4, i64 128
  %9 = load ptr, ptr %8, align 8, !tbaa !74
  %10 = icmp eq ptr %0, %9
  br i1 %10, label %11, label %15

11:                                               ; preds = %2
  %12 = load ptr, ptr getelementptr inbounds nuw (i8, ptr @darktable, i64 104), align 8, !tbaa !56
  %13 = load ptr, ptr %12, align 8, !tbaa !93
  %14 = tail call ptr @dt_ui_thumbtable(ptr noundef %13) #10
  tail call void @dt_thumbtable_set_overlays_block_timeout(ptr noundef %14, i32 noundef %7) #10
  br label %24

15:                                               ; preds = %2
  %16 = getelementptr inbounds nuw i8, ptr %4, i64 184
  %17 = load ptr, ptr %16, align 8, !tbaa !82
  %18 = icmp eq ptr %0, %17
  br i1 %18, label %19, label %24

19:                                               ; preds = %15
  %20 = load ptr, ptr getelementptr inbounds nuw (i8, ptr @darktable, i64 80), align 8, !tbaa !92
  %21 = tail call i32 @dt_view_lighttable_preview_state(ptr noundef %20) #10
  %.not = icmp ne i32 %21, 0
  %spec.select = zext i1 %.not to i32
  %22 = tail call noalias ptr (ptr, ...) @g_strdup_printf(ptr noundef nonnull @.str.40, i32 noundef %spec.select) #10
  tail call void @dt_conf_set_int(ptr noundef %22, i32 noundef %7) #10
  tail call void @g_free(ptr noundef %22) #10
  %23 = load ptr, ptr getelementptr inbounds nuw (i8, ptr @darktable, i64 80), align 8, !tbaa !92
  tail call void @dt_view_lighttable_culling_preview_reload_overlays(ptr noundef %23) #10
  br label %24

24:                                               ; preds = %15, %19, %11
  ret void
}